; Function Attrs: mustprogress uwtable
define void @_ZNK5Ipopt17RegisteredOptions30RegisteredCategoriesByPriorityERSt3setINS_8SmartPtrINS_18RegisteredCategoryEEENS3_15ComparePriorityESaIS4_EE(ptr noundef nonnull readonly align 8 dereferenceable(128) %0, ptr noundef nonnull align 8 dereferenceable(48) %1) local_unnamed_addr #3 align 2 {
  %3 = getelementptr inbounds nuw i8, ptr %0, i64 88
  %4 = load ptr, ptr %3, align 8, !tbaa !112
  %5 = getelementptr inbounds nuw i8, ptr %0, i64 72
  %.not5 = icmp eq ptr %4, %5
  br i1 %.not5, label %._crit_edge, label %.lr.ph

._crit_edge:                                      ; preds = %.lr.ph, %2
  ret void

.lr.ph:                                           ; preds = %2, %.lr.ph
  %.sroa.02.06 = phi ptr [ %8, %.lr.ph ], [ %4, %2 ]
  %6 = getelementptr inbounds nuw i8, ptr %.sroa.02.06, i64 64
  %7 = tail call { ptr, i8 } @_ZNSt8_Rb_treeIN5Ipopt8SmartPtrINS0_18RegisteredCategoryEEES3_St9_IdentityIS3_ENS2_15ComparePriorityESaIS3_EE16_M_insert_uniqueIRKS3_EESt4pairISt17_Rb_tree_iteratorIS3_EbEOT_(ptr noundef nonnull align 8 dereferenceable(48) %1, ptr noundef nonnull align 8 dereferenceable(8) %6)
  %8 = tail call noundef ptr @_ZSt18_Rb_tree_incrementPKSt18_Rb_tree_node_base(ptr noundef %.sroa.02.06) #26
  %.not = icmp eq ptr %8, %5
  br i1 %.not, label %._crit_edge, label %.lr.ph, !llvm.loop !113
}